Certificate:
    Data:
        Version: 1 (0x0)
        Serial Number: 3 (0x3)
        Signature Algorithm: md5WithRSAEncryption
        Issuer: O=RCF CA B, L=Canberra, ST=Australian Capital Territory, C=AU
        Validity
            Not Before: May 24 00:46:19 2010 GMT
            Not After : May 24 00:46:19 2011 GMT
        Subject: C=AU, ST=Australian Capital Territory, O=RCF CA B, CN=localhost
        Subject Public Key Info:
            Public Key Algorithm: rsaEncryption
            RSA Public Key: (1024 bit)
                Modulus (1024 bit):
                    00:af:ac:4e:41:42:17:85:13:f9:2f:3b:4d:b4:c7:
                    7d:3e:2e:b4:24:c6:f6:e3:30:95:85:f7:93:70:d8:
                    a2:36:56:51:e9:74:34:5e:73:f3:52:03:44:1f:82:
                    40:84:0d:a2:b6:3d:15:6d:93:4b:fb:3d:ab:43:3d:
                    01:ad:df:9b:72:41:05:d9:73:2c:b0:d4:0c:25:f8:
                    60:8f:59:79:dd:76:9c:7a:ff:0e:0a:9e:88:e4:8d:
                    bf:98:8c:44:4f:58:90:29:6a:61:4f:d0:b9:9c:53:
                    ab:f2:5c:52:02:0f:ee:9e:38:63:5c:8e:e3:ad:6f:
                    2b:54:98:29:8c:79:c1:03:95
                Exponent: 65537 (0x10001)
    Signature Algorithm: md5WithRSAEncryption
        ba:9b:b7:6c:e0:57:51:68:cc:aa:64:2f:56:b5:f7:49:37:70:
        8d:4c:a0:ec:7e:38:7e:40:cf:8c:9b:ff:ec:35:fe:95:03:94:
        73:d9:72:2a:1b:c9:69:1a:bd:6b:d3:ca:f1:26:8b:ce:44:dd:
        c6:30:68:df:7a:4d:c5:e1:da:d7:3a:a8:4e:d3:49:4d:49:0d:
        1d:b6:d5:0f:15:ab:e5:b6:fe:75:1e:67:41:74:0d:2b:27:11:
        1b:df:6e:98:50:a4:c6:3e:4a:3d:e8:42:d2:b9:30:62:69:d3:
        26:f0:c1:e0:ee:f3:d1:17:7e:6d:7e:4a:65:53:79:b4:2f:1a:
        91:22
-----BEGIN CERTIFICATE-----
MIICJDCCAY0CAQMwDQYJKoZIhvcNAQEEBQAwWjERMA8GA1UEChMIUkNGIENBIEIx
ETAPBgNVBAcTCENhbmJlcnJhMSUwIwYDVQQIExxBdXN0cmFsaWFuIENhcGl0YWwg
VGVycml0b3J5MQswCQYDVQQGEwJBVTAeFw0xMDA1MjQwMDQ2MTlaFw0xMTA1MjQw
MDQ2MTlaMFsxCzAJBgNVBAYTAkFVMSUwIwYDVQQIExxBdXN0cmFsaWFuIENhcGl0
YWwgVGVycml0b3J5MREwDwYDVQQKEwhSQ0YgQ0EgQjESMBAGA1UEAxMJbG9jYWxo
b3N0MIGfMA0GCSqGSIb3DQEBAQUAA4GNADCBiQKBgQCvrE5BQheFE/kvO020x30+
LrQkxvbjMJWF95Nw2KI2VlHpdDRec/NSA0QfgkCEDaK2PRVtk0v7PatDPQGt35ty
QQXZcyyw1Awl+GCPWXnddpx6/w4Knojkjb+YjERPWJApamFP0LmcU6vyXFICD+6e
OGNcjuOtbytUmCmMecEDlQIDAQABMA0GCSqGSIb3DQEBBAUAA4GBALqbt2zgV1Fo
zKpkL1a190k3cI1MoOx+OH5Az4yb/+w1/pUDlHPZciobyWkavWvTyvEmi85E3cYw
aN96TcXh2tc6qE7TSU1JDR221Q8Vq+W2/nUeZ0F0DSsnERvfbphQpMY+Sj3oQtK5
MGJp0ybwweDu89EXfm1+SmVTebQvGpEi
-----END CERTIFICATE-----
-----BEGIN RSA PRIVATE KEY-----
MIICXQIBAAKBgQCvrE5BQheFE/kvO020x30+LrQkxvbjMJWF95Nw2KI2VlHpdDRe
c/NSA0QfgkCEDaK2PRVtk0v7PatDPQGt35tyQQXZcyyw1Awl+GCPWXnddpx6/w4K
nojkjb+YjERPWJApamFP0LmcU6vyXFICD+6eOGNcjuOtbytUmCmMecEDlQIDAQAB
AoGAPBrxH2TUlUSzMlTRDnRexqLGIfstR6g80HxXpvmH7p10IzMOI+76JmpVqY4w
Mr5TmJSnuzj1ez2rVjMOWwYxscGQhWyqc4WZAdAiXTKV6mJm9XZH5ijcLmF7r0E3
frrhQAmtA/ffpAi2DvbILoldfJyYHgHaNZ18Vm9PwCCub7UCQQDcp6Ewlp8OhOrq
2qyUoskHzLGMEyKUXMRBG8rhh4KQNOlo/Owf4ZBOCrdfFjj4xqN0lDyFDXmxhEqP
qweY4srPAkEAy9AdR6sKP1EwpoSmJWE2bbkgQpdkYiWPCQRhqih5DBTX34pjhVPO
gQWlM7Of4Xw8dN1a529vCDGSd/GBKblUWwJBAKVPZOCtB27uP71BpOgaaPfR7/Zc
Y5y5P0L0GnQKfNOjAHdqfVCJQf5l4ul3Eam3z7/ISur3pINM9DtcS+3Lg1sCQQC9
8V1oTlHFgo/5kEQbMAb+qPoUtWy7P0+XUrsGTqPJC5/H1/w55Ene2nkEvxFwnkzl
iOnQKHzswO5E1BDQ5sRjAkB9MAw6E8XhJwp/YnYmmHl/KrmjpGmEkKUZjwGB1ufE
HxVL08YsTs8iSMC1vgr/vkHJW8BWlsqALDmrtMAA/Ihw
-----END RSA PRIVATE KEY-----
