Certificate:
    Data:
        Version: 1 (0x0)
        Serial Number: 3 (0x3)
        Signature Algorithm: md5WithRSAEncryption
        Issuer: O=RCF CA A, L=Canberra, ST=Australian Capital Territory, C=AU
        Validity
            Not Before: May 24 00:39:36 2010 GMT
            Not After : May 24 00:39:36 2011 GMT
        Subject: C=AU, ST=Australian Capital Territory, O=RCF CA A, CN=localhost
        Subject Public Key Info:
            Public Key Algorithm: rsaEncryption
            RSA Public Key: (1024 bit)
                Modulus (1024 bit):
                    00:e1:67:e7:17:04:ff:7d:46:fa:2d:e9:97:12:16:
                    28:0d:e6:fd:89:d5:1a:14:5b:a8:00:c4:9d:4b:30:
                    11:7f:dc:7c:76:a9:cc:a6:4d:e0:e2:99:a2:60:0c:
                    ed:3e:3f:68:e0:8a:0f:05:7d:be:5c:98:31:b0:93:
                    fc:54:c3:70:76:bd:fa:b8:6b:c7:66:32:6f:95:dc:
                    0c:a7:92:6d:54:05:2f:b3:5a:de:64:30:e8:f8:b7:
                    9b:34:b1:22:5a:3b:5e:b1:b7:d0:30:66:2c:91:b5:
                    eb:37:df:a8:cc:83:8a:15:17:88:55:93:6c:ed:b5:
                    1c:ca:b6:e6:3f:5b:fd:39:af
                Exponent: 65537 (0x10001)
    Signature Algorithm: md5WithRSAEncryption
        30:cd:47:e6:12:97:82:4d:57:c3:be:f5:c3:d9:4e:40:91:81:
        d6:69:c1:11:c5:f0:fc:7e:ca:12:a8:fc:68:e3:15:31:80:19:
        89:d0:05:ed:a6:64:5f:71:da:ed:bf:1f:63:fd:09:58:38:36:
        e2:b5:b1:43:f3:b5:94:07:6b:b9:35:9e:82:04:ea:2d:e9:5d:
        49:e1:db:13:04:b6:46:f7:75:f0:8b:a9:a3:f5:da:21:6d:0a:
        cf:df:f4:1b:71:70:12:17:3b:45:a9:be:be:09:3c:38:53:4a:
        7a:be:f1:95:43:5b:75:8e:77:91:ca:27:ac:36:0a:cd:40:7c:
        45:e9
-----BEGIN CERTIFICATE-----
MIICJDCCAY0CAQMwDQYJKoZIhvcNAQEEBQAwWjERMA8GA1UEChMIUkNGIENBIEEx
ETAPBgNVBAcTCENhbmJlcnJhMSUwIwYDVQQIExxBdXN0cmFsaWFuIENhcGl0YWwg
VGVycml0b3J5MQswCQYDVQQGEwJBVTAeFw0xMDA1MjQwMDM5MzZaFw0xMTA1MjQw
MDM5MzZaMFsxCzAJBgNVBAYTAkFVMSUwIwYDVQQIExxBdXN0cmFsaWFuIENhcGl0
YWwgVGVycml0b3J5MREwDwYDVQQKEwhSQ0YgQ0EgQTESMBAGA1UEAxMJbG9jYWxo
b3N0MIGfMA0GCSqGSIb3DQEBAQUAA4GNADCBiQKBgQDhZ+cXBP99Rvot6ZcSFigN
5v2J1RoUW6gAxJ1LMBF/3Hx2qcymTeDimaJgDO0+P2jgig8Ffb5cmDGwk/xUw3B2
vfq4a8dmMm+V3Aynkm1UBS+zWt5kMOj4t5s0sSJaO16xt9AwZiyRtes336jMg4oV
F4hVk2zttRzKtuY/W/05rwIDAQABMA0GCSqGSIb3DQEBBAUAA4GBADDNR+YSl4JN
V8O+9cPZTkCRgdZpwRHF8Px+yhKo/GjjFTGAGYnQBe2mZF9x2u2/H2P9CVg4NuK1
sUPztZQHa7k1noIE6i3pXUnh2xMEtkb3dfCLqaP12iFtCs/f9BtxcBIXO0Wpvr4J
PDhTSnq+8ZVDW3WOd5HKJ6w2Cs1AfEXp
-----END CERTIFICATE-----
-----BEGIN RSA PRIVATE KEY-----
MIICXQIBAAKBgQDhZ+cXBP99Rvot6ZcSFigN5v2J1RoUW6gAxJ1LMBF/3Hx2qcym
TeDimaJgDO0+P2jgig8Ffb5cmDGwk/xUw3B2vfq4a8dmMm+V3Aynkm1UBS+zWt5k
MOj4t5s0sSJaO16xt9AwZiyRtes336jMg4oVF4hVk2zttRzKtuY/W/05rwIDAQAB
AoGANMYO5OTWrI4hpP470JA/cIHUeqDaKkoLW6Ks8R2f+z+0JFQ9BfLV5Df0PGjK
YviVpXytZ6u5FhTMDXuYaIAZpELj9N3dGIJ9WuxFwrMKlb+f45++OFyYGzWAwTnj
Lv2o86VGqqq7Cx8kh5S0RSOdh4JkG+ZTiSKJZi4f/ZBwzwECQQD59Ad5dZkPUXOa
gHLvSjfNI5RMlnpkTTqegJMf03owTFpcXPSAvi5qPTTAcg8wuGV3CPtY2ibINKCn
yu9Yk7DZAkEA5tvZwjybObXNNP1oRxYmdZ4V/F1mjIioyEmASfXVnkrpZ9MRbb6j
/kWGTf+VryMvfqso79aXCn7Xtul3PzwpxwJBALS5DYJzVaSuttA6GWAMoIYROJOb
pYjKEh0yR64WQN2VByyLBTnkyDiGYpLWpUcLvEkx1FHtAWd2LcbEQwQfXRkCQCx3
Jg86ey93a+oL8RzYEFpRM6zjFJB29gN13MbiGd4eUayUw+Oed5nPLFozo1ITdd9w
+jaP35G+8q+hcj10yhsCQQCiCuuBv+dLLjdE+9QTsWGf/hhSlMcuSPRh40KkPy3F
H1mNI4rl+yuM7G1EqMZXIj79oyAkeRsvnVOLzV6XmsNz
-----END RSA PRIVATE KEY-----
